; ModuleID = '15/2123.c'
source_filename = "15/2123.c"
target datalayout = "e-m:e-p270:32:32-p271:32:32-p272:64:64-i64:64-f80:128-n8:16:32:64-S128"
target triple = "x86_64-pc-linux-gnu"

@.str = private unnamed_addr constant [3 x i8] c"%d\00", align 1

; Function Attrs: noinline nounwind uwtable
define dso_local i32 @main(i32 %0, i8** %1) #0 {
  %3 = alloca i32, align 4
  %4 = alloca i32, align 4
  %5 = alloca i8**, align 8
  %6 = alloca i32, align 4
  %7 = alloca i32, align 4
  %8 = alloca i32, align 4
  %9 = alloca i32, align 4
  %10 = alloca i32, align 4
  %11 = alloca i32*, align 8
  store i32 0, i32* %3, align 4
  store i32 %0, i32* %4, align 4
  store i8** %1, i8*** %5, align 8
  store i32 0, i32* %8, align 4
  %12 = call i32 (i8*, ...) @__isoc99_scanf(i8* getelementptr inbounds ([3 x i8], [3 x i8]* @.str, i64 0, i64 0), i32* %6)
  %13 = load i32, i32* %6, align 4
  %14 = sext i32 %13 to i64
  %15 = mul i64 %14, 4
  %16 = call noalias i8* @malloc(i64 %15) #3
  %17 = bitcast i8* %16 to i32*
  store i32* %17, i32** %11, align 8
  store i32 0, i32* %9, align 4
  br label %18

18:                                               ; preds = %79, %2
  %19 = load i32, i32* %9, align 4
  %20 = load i32, i32* %6, align 4
  %21 = icmp slt i32 %19, %20
  br i1 %21, label %22, label %82

22:                                               ; preds = %18
  store i32 0, i32* %10, align 4
  br label %23

23:                                               ; preds = %33, %22
  %24 = load i32, i32* %10, align 4
  %25 = load i32, i32* %6, align 4
  %26 = icmp slt i32 %24, %25
  br i1 %26, label %27, label %36

27:                                               ; preds = %23
  %28 = load i32*, i32** %11, align 8
  %29 = load i32, i32* %10, align 4
  %30 = sext i32 %29 to i64
  %31 = getelementptr inbounds i32, i32* %28, i64 %30
  %32 = call i32 (i8*, ...) @__isoc99_scanf(i8* getelementptr inbounds ([3 x i8], [3 x i8]* @.str, i64 0, i64 0), i32* %31)
  br label %33

33:                                               ; preds = %27
  %34 = load i32, i32* %10, align 4
  %35 = add nsw i32 %34, 1
  store i32 %35, i32* %10, align 4
  br label %23

36:                                               ; preds = %23
  store i32 0, i32* %10, align 4
  br label %37

37:                                               ; preds = %50, %36
  %38 = load i32, i32* %10, align 4
  %39 = load i32, i32* %6, align 4
  %40 = icmp slt i32 %38, %39
  br i1 %40, label %41, label %53

41:                                               ; preds = %37
  %42 = load i32*, i32** %11, align 8
  %43 = load i32, i32* %10, align 4
  %44 = sext i32 %43 to i64
  %45 = getelementptr inbounds i32, i32* %42, i64 %44
  %46 = load i32, i32* %45, align 4
  %47 = icmp eq i32 %46, 0
  br i1 %47, label %48, label %49

48:                                               ; preds = %41
  br label %53

49:                                               ; preds = %41
  br label %50

50:                                               ; preds = %49
  %51 = load i32, i32* %10, align 4
  %52 = add nsw i32 %51, 1
  store i32 %52, i32* %10, align 4
  br label %37

53:                                               ; preds = %48, %37
  %54 = load i32, i32* %10, align 4
  %55 = add nsw i32 %54, 1
  store i32 %55, i32* %7, align 4
  br label %56

56:                                               ; preds = %75, %53
  %57 = load i32, i32* %7, align 4
  %58 = load i32, i32* %6, align 4
  %59 = icmp slt i32 %57, %58
  br i1 %59, label %60, label %78

60:                                               ; preds = %56
  %61 = load i32*, i32** %11, align 8
  %62 = load i32, i32* %7, align 4
  %63 = sext i32 %62 to i64
  %64 = getelementptr inbounds i32, i32* %61, i64 %63
  %65 = load i32, i32* %64, align 4
  %66 = icmp eq i32 %65, 0
  br i1 %66, label %67, label %74

67:                                               ; preds = %60
  %68 = load i32, i32* %8, align 4
  %69 = load i32, i32* %7, align 4
  %70 = add nsw i32 %68, %69
  %71 = load i32, i32* %10, align 4
  %72 = sub nsw i32 %70, %71
  %73 = sub nsw i32 %72, 1
  store i32 %73, i32* %8, align 4
  br label %78

74:                                               ; preds = %60
  br label %75

75:                                               ; preds = %74
  %76 = load i32, i32* %7, align 4
  %77 = add nsw i32 %76, 1
  store i32 %77, i32* %7, align 4
  br label %56

78:                                               ; preds = %67, %56
  br label %79

79:                                               ; preds = %78
  %80 = load i32, i32* %9, align 4
  %81 = add nsw i32 %80, 1
  store i32 %81, i32* %9, align 4
  br label %18

82:                                               ; preds = %18
  %83 = load i32, i32* %8, align 4
  %84 = call i32 (i8*, ...) @printf(i8* getelementptr inbounds ([3 x i8], [3 x i8]* @.str, i64 0, i64 0), i32 %83)
  ret i32 0
}

declare dso_local i32 @__isoc99_scanf(i8*, ...) #1

; Function Attrs: nounwind
declare dso_local noalias i8* @malloc(i64) #2

declare dso_local i32 @printf(i8*, ...) #1


!llvm.module.flags = !{!0}
!llvm.ident = !{!1}

!0 = !{i32 1, !"wchar_size", i32 4}
!1 = !{!"clang version 10.0.0-4ubuntu1 "}
